target datalayout = "e-m:e-p270:32:32-p271:32:32-p272:64:64-i64:64-i128:128-f80:128-n8:16:32:64-S128"
target triple = "x86_64-pc-linux-gnu"

; Function Attrs: null_pointer_is_valid sspstrong uwtable
define internal zeroext i1 @quic_get_sub_stream_id(i32 noundef %0, i32 noundef %1, i1 noundef zeroext %2, ptr noundef %3) #0 {
  %5 = alloca i1, align 1
  %6 = alloca i32, align 4
  %7 = alloca i32, align 4
  %8 = alloca i8, align 1
  %9 = alloca ptr, align 8
  store i32 %0, ptr %6, align 4
  store i32 %1, ptr %7, align 4
  %10 = zext i1 %2 to i8
  store i8 %10, ptr %8, align 1
  store ptr %3, ptr %9, align 8
  %11 = load i8, ptr %8, align 1, !range !6, !noundef !7
  %12 = trunc i8 %11 to i1
  br i1 %12, label %13, label %18

13:                                               ; preds = %4
  %14 = load i32, ptr %6, align 4
  %15 = load i32, ptr %7, align 4
  %16 = load ptr, ptr %9, align 8
  %17 = call zeroext i1 @quic_get_stream_id_le(i32 noundef %14, i32 noundef %15, ptr noundef %16)
  store i1 %17, ptr %5, align 1
  br label %23

18:                                               ; preds = %4
  %19 = load i32, ptr %6, align 4
  %20 = load i32, ptr %7, align 4
  %21 = load ptr, ptr %9, align 8
  %22 = call zeroext i1 @quic_get_stream_id_ge(i32 noundef %19, i32 noundef %20, ptr noundef %21)
  store i1 %22, ptr %5, align 1
  br label %23

23:                                               ; preds = %18, %13
  %24 = load i1, ptr %5, align 1
  ret i1 %24
}