; Function Attrs: null_pointer_is_valid sspstrong uwtable
define internal noundef zeroext i1 @quic_get_sub_stream_id(i32 noundef %0, i32 noundef %1, i1 noundef zeroext %2, ptr noundef writeonly captures(none) %3) #0 {
  br i1 %2, label %5, label %7

5:                                                ; preds = %4
  %6 = tail call zeroext i1 @quic_get_stream_id_le(i32 noundef %0, i32 noundef %1, ptr noundef %3)
  br label %9

7:                                                ; preds = %4
  %8 = tail call zeroext i1 @quic_get_stream_id_ge(i32 noundef %0, i32 noundef %1, ptr noundef %3)
  br label %9

9:                                                ; preds = %7, %5
  %.0 = phi i1 [ %6, %5 ], [ %8, %7 ]
  ret i1 %.0
}